target datalayout = "e-m:e-p270:32:32-p271:32:32-p272:64:64-i64:64-i128:128-f80:128-n8:16:32:64-S128"
target triple = "x86_64-pc-linux-gnu"

%"class.std::__cxx11::basic_string" = type { %"struct.std::__cxx11::basic_string<char>::_Alloc_hider", i64, %union.anon }
%"struct.std::__cxx11::basic_string<char>::_Alloc_hider" = type { ptr }
%union.anon = type { i64, [8 x i8] }
%"struct.Luau::ToDotOptions" = type { i8, i8 }

; Function Attrs: mustprogress uwtable
define dso_local void @_ZN4Luau5toDotB5cxx11EPKNS_11TypePackVarE(ptr dead_on_unwind noalias writable sret(%"class.std::__cxx11::basic_string") align 8 %0, ptr noundef %1) #2 {
  %3 = alloca ptr, align 8
  %4 = alloca ptr, align 8
  %5 = alloca %"struct.Luau::ToDotOptions", align 1
  store ptr %0, ptr %3, align 8
  store ptr %1, ptr %4, align 8, !tbaa !45
  %6 = load ptr, ptr %4, align 8, !tbaa !45
  call void @llvm.lifetime.start.p0(i64 2, ptr %5) #19
  %7 = getelementptr inbounds nuw %"struct.Luau::ToDotOptions", ptr %5, i32 0, i32 0
  store i8 1, ptr %7, align 1, !tbaa !47
  %8 = getelementptr inbounds nuw %"struct.Luau::ToDotOptions", ptr %5, i32 0, i32 1
  store i8 1, ptr %8, align 1, !tbaa !48
  call void @_ZN4Luau5toDotB5cxx11EPKNS_11TypePackVarERKNS_12ToDotOptionsE(ptr dead_on_unwind writable sret(%"class.std::__cxx11::basic_string") align 8 %0, ptr noundef %6, ptr noundef nonnull align 1 dereferenceable(2) %5)
  call void @llvm.lifetime.end.p0(i64 2, ptr %5) #19
  ret void
}